; Function Attrs: nounwind sspstrong uwtable
define internal i64 @rb_ary_cycle_size(i64 noundef %0, i64 noundef %1, i64 %2) #4 {
  %.not = icmp eq i64 %1, 0
  br i1 %.not, label %17, label %4

4:                                                ; preds = %3
  %5 = inttoptr i64 %1 to ptr
  %6 = load i64, ptr %5, align 8, !tbaa !7
  %7 = and i64 %6, 8192
  %.not.i = icmp eq i64 %7, 0
  br i1 %.not.i, label %rb_array_len.exit, label %rb_array_len.exit.thread

rb_array_len.exit:                                ; preds = %4
  %8 = getelementptr inbounds nuw i8, ptr %5, i64 16
  %9 = load i64, ptr %8, align 8, !tbaa !12
  %10 = icmp sgt i64 %9, 0
  br i1 %10, label %13, label %17

rb_array_len.exit.thread:                         ; preds = %4
  %11 = and i64 %6, 4161536
  %.not23 = icmp eq i64 %11, 0
  br i1 %.not23, label %17, label %.thread

.thread:                                          ; preds = %rb_array_len.exit.thread
  %12 = getelementptr inbounds nuw i8, ptr %5, i64 16
  br label %RARRAY_AREF.exit

13:                                               ; preds = %rb_array_len.exit
  %14 = getelementptr inbounds nuw i8, ptr %5, i64 32
  %15 = load ptr, ptr %14, align 8, !tbaa !12
  br label %RARRAY_AREF.exit

RARRAY_AREF.exit:                                 ; preds = %.thread, %13
  %.0.i.i = phi ptr [ %12, %.thread ], [ %15, %13 ]
  %16 = load i64, ptr %.0.i.i, align 8, !tbaa !13
  br label %17

17:                                               ; preds = %rb_array_len.exit.thread, %RARRAY_AREF.exit, %rb_array_len.exit, %3
  %.0 = phi i64 [ %16, %RARRAY_AREF.exit ], [ 4, %rb_array_len.exit ], [ 4, %3 ], [ 4, %rb_array_len.exit.thread ]
  %18 = inttoptr i64 %0 to ptr
  %19 = load i64, ptr %18, align 8, !tbaa !7
  %20 = and i64 %19, 8192
  %.not.i14 = icmp eq i64 %20, 0
  br i1 %.not.i14, label %24, label %21

21:                                               ; preds = %17
  %22 = lshr i64 %19, 15
  %23 = and i64 %22, 127
  br label %rb_array_len.exit16

24:                                               ; preds = %17
  %25 = getelementptr inbounds nuw i8, ptr %18, i64 16
  %26 = load i64, ptr %25, align 8, !tbaa !12
  br label %rb_array_len.exit16

rb_array_len.exit16:                              ; preds = %21, %24
  %.0.i15 = phi i64 [ %23, %21 ], [ %26, %24 ]
  %27 = icmp eq i64 %.0.i15, 0
  br i1 %27, label %rb_fix_mul_fix.exit, label %28

28:                                               ; preds = %rb_array_len.exit16
  %29 = icmp eq i64 %.0, 4
  br i1 %29, label %30, label %32

30:                                               ; preds = %28
  %31 = tail call i64 @rb_float_new_in_heap(double noundef 0x7FF0000000000000) #24
  br label %rb_fix_mul_fix.exit

32:                                               ; preds = %28
  %33 = and i64 %.0, 1
  %.not.i18 = icmp eq i64 %33, 0
  br i1 %.not.i18, label %36, label %34

34:                                               ; preds = %32
  %35 = ashr i64 %.0, 1
  br label %rb_num2long_inline.exit

36:                                               ; preds = %32
  %37 = tail call i64 @rb_num2long(i64 noundef %.0) #24
  br label %rb_num2long_inline.exit

rb_num2long_inline.exit:                          ; preds = %34, %36
  %.0.i19 = phi i64 [ %35, %34 ], [ %37, %36 ]
  %38 = icmp slt i64 %.0.i19, 1
  br i1 %38, label %rb_fix_mul_fix.exit, label %39

39:                                               ; preds = %rb_num2long_inline.exit
  %40 = shl nuw i64 %.0.i19, 1
  %41 = load i64, ptr %18, align 8, !tbaa !7
  %42 = and i64 %41, 8192
  %.not.i.i20 = icmp eq i64 %42, 0
  br i1 %.not.i.i20, label %46, label %43

43:                                               ; preds = %39
  %44 = lshr i64 %41, 15
  %45 = and i64 %44, 127
  br label %rb_array_len.exit.i

46:                                               ; preds = %39
  %47 = getelementptr inbounds nuw i8, ptr %18, i64 16
  %48 = load i64, ptr %47, align 8, !tbaa !12
  br label %rb_array_len.exit.i

rb_array_len.exit.i:                              ; preds = %46, %43
  %.0.i.i21 = phi i64 [ %45, %43 ], [ %48, %46 ]
  %49 = add i64 %.0.i.i21, 4611686018427387904
  %or.cond.i.i = icmp sgt i64 %49, -1
  br i1 %or.cond.i.i, label %rb_ary_length.exit, label %50

50:                                               ; preds = %rb_array_len.exit.i
  %51 = tail call i64 @rb_int2big(i64 noundef %.0.i.i21) #24
  %52 = ashr i64 %51, 1
  br label %rb_ary_length.exit

rb_ary_length.exit:                               ; preds = %rb_array_len.exit.i, %50
  %.0.i2.i = phi i64 [ %52, %50 ], [ %.0.i.i21, %rb_array_len.exit.i ]
  %53 = ashr exact i64 %40, 1
  %54 = sext i64 %.0.i2.i to i128
  %55 = sext i64 %53 to i128
  %56 = mul nsw i128 %54, %55
  %57 = add nsw i128 %56, 4611686018427387904
  %or.cond.i = icmp ult i128 %57, 9223372036854775808
  %58 = trunc i128 %56 to i64
  br i1 %or.cond.i, label %59, label %62

59:                                               ; preds = %rb_ary_length.exit
  %60 = shl nsw i64 %58, 1
  %61 = or disjoint i64 %60, 1
  br label %rb_fix_mul_fix.exit

62:                                               ; preds = %rb_ary_length.exit
  %.sroa.2.0.extract.shift.i = lshr i128 %56, 64
  %.sroa.2.0.extract.trunc.i = trunc nuw i128 %.sroa.2.0.extract.shift.i to i64
  %63 = tail call i64 @rb_int128t2big(i64 noundef %58, i64 noundef %.sroa.2.0.extract.trunc.i) #24
  br label %rb_fix_mul_fix.exit

rb_fix_mul_fix.exit:                              ; preds = %62, %59, %rb_num2long_inline.exit, %rb_array_len.exit16, %30
  %.011 = phi i64 [ %31, %30 ], [ 1, %rb_array_len.exit16 ], [ 1, %rb_num2long_inline.exit ], [ %61, %59 ], [ %63, %62 ]
  ret i64 %.011
}